; Function Attrs: mustprogress uwtable
define void @_ZN2cv11FileStorage4Impl6rewindEv(ptr noundef nonnull align 8 captures(none) dereferenceable(700) initializes((688, 696)) %0) unnamed_addr #13 align 2 {
  %2 = getelementptr inbounds nuw i8, ptr %0, i64 56
  %3 = load ptr, ptr %2, align 8, !tbaa !201
  %.not = icmp eq ptr %3, null
  br i1 %.not, label %5, label %4

4:                                                ; preds = %1
  tail call void @rewind(ptr noundef nonnull %3)
  br label %10

5:                                                ; preds = %1
  %6 = getelementptr inbounds nuw i8, ptr %0, i64 64
  %7 = load ptr, ptr %6, align 8, !tbaa !220
  %.not2 = icmp eq ptr %7, null
  br i1 %.not2, label %10, label %8

8:                                                ; preds = %5
  %9 = tail call i32 @gzrewind(ptr noundef nonnull %7)
  br label %10

10:                                               ; preds = %5, %8, %4
  %11 = getelementptr inbounds nuw i8, ptr %0, i64 688
  store i64 0, ptr %11, align 8, !tbaa !248
  ret void
}